; Function Attrs: mustprogress nofree norecurse nosync nounwind willreturn memory(argmem: readwrite) uwtable
define void @_ZN32pxrInternal_v0_24__pxrReserved__12Hd_SortedIdsC2EOS0_(ptr nocapture noundef nonnull writeonly align 8 dereferenceable(64) %0, ptr nocapture noundef nonnull align 8 dereferenceable(64) %1) unnamed_addr #5 align 2 {
  %3 = load ptr, ptr %1, align 8
  store ptr %3, ptr %0, align 8
  %4 = getelementptr inbounds nuw i8, ptr %0, i64 8
  %5 = getelementptr inbounds nuw i8, ptr %1, i64 8
  %6 = load ptr, ptr %5, align 8
  store ptr %6, ptr %4, align 8
  %7 = getelementptr inbounds nuw i8, ptr %0, i64 16
  %8 = getelementptr inbounds nuw i8, ptr %1, i64 16
  %9 = load ptr, ptr %8, align 8
  store ptr %9, ptr %7, align 8
  tail call void @llvm.memset.p0.i64(ptr noundef nonnull align 8 dereferenceable(24) %1, i8 0, i64 24, i1 false)
  %10 = getelementptr inbounds nuw i8, ptr %0, i64 24
  %11 = getelementptr inbounds nuw i8, ptr %1, i64 24
  %12 = load ptr, ptr %11, align 8
  store ptr %12, ptr %10, align 8
  %13 = getelementptr inbounds i8, ptr %0, i64 32
  %14 = getelementptr inbounds i8, ptr %1, i64 32
  %15 = load ptr, ptr %14, align 8
  store ptr %15, ptr %13, align 8
  %16 = getelementptr inbounds i8, ptr %0, i64 40
  %17 = getelementptr inbounds i8, ptr %1, i64 40
  %18 = load ptr, ptr %17, align 8
  store ptr %18, ptr %16, align 8
  tail call void @llvm.memset.p0.i64(ptr noundef nonnull align 8 dereferenceable(24) %11, i8 0, i64 24, i1 false)
  %19 = getelementptr inbounds nuw i8, ptr %0, i64 48
  %20 = getelementptr inbounds nuw i8, ptr %1, i64 48
  %21 = load i32, ptr %20, align 8
  store i32 %21, ptr %19, align 8
  %22 = getelementptr inbounds nuw i8, ptr %0, i64 56
  %23 = getelementptr inbounds nuw i8, ptr %1, i64 56
  %24 = load i64, ptr %23, align 8
  store i64 %24, ptr %22, align 8
  store ptr null, ptr %23, align 8
  ret void
}